; Function Attrs: nounwind uwtable
define internal void @op_cbfunc_rel(i32 noundef %0, ptr noundef initializes((344, 348)) %1) #0 {
  %3 = getelementptr inbounds nuw i8, ptr %1, i64 344
  store i32 %0, ptr %3, align 8, !tbaa !28
  %4 = getelementptr inbounds nuw i8, ptr %1, i64 432
  %5 = load ptr, ptr %4, align 8, !tbaa !133
  %.not = icmp eq ptr %5, null
  br i1 %.not, label %13, label %6

6:                                                ; preds = %2
  %7 = getelementptr inbounds nuw i8, ptr %1, i64 392
  %8 = load ptr, ptr %7, align 8, !tbaa !33
  %9 = getelementptr inbounds nuw i8, ptr %1, i64 400
  %10 = load i64, ptr %9, align 8, !tbaa !34
  %11 = getelementptr inbounds nuw i8, ptr %1, i64 440
  %12 = load ptr, ptr %11, align 8, !tbaa !134
  tail call void %5(i32 noundef %0, ptr noundef %8, i64 noundef %10, ptr noundef %12, ptr noundef null, ptr noundef null) #16
  br label %13

13:                                               ; preds = %2, %6
  %14 = tail call i32 @pthread_mutex_lock(ptr noundef nonnull %1) #16
  %15 = icmp eq i32 %14, 35
  br i1 %15, label %16, label %pmix_obj_update.exit

16:                                               ; preds = %13
  %17 = tail call ptr @__errno_location() #18
  store i32 35, ptr %17, align 4, !tbaa !3
  tail call void @perror(ptr noundef nonnull @.str.37) #19
  tail call void @abort() #20
  unreachable

pmix_obj_update.exit:                             ; preds = %13
  %18 = getelementptr inbounds nuw i8, ptr %1, i64 48
  %19 = load i32, ptr %18, align 8, !tbaa !16
  %20 = add nsw i32 %19, -1
  store i32 %20, ptr %18, align 8, !tbaa !16
  %21 = tail call i32 @pthread_mutex_unlock(ptr noundef nonnull %1) #16
  %22 = icmp eq i32 %20, 0
  br i1 %22, label %23, label %37

23:                                               ; preds = %pmix_obj_update.exit
  %24 = getelementptr inbounds nuw i8, ptr %1, i64 40
  %25 = load ptr, ptr %24, align 8, !tbaa !13
  %26 = getelementptr inbounds nuw i8, ptr %25, i64 48
  %27 = load ptr, ptr %26, align 8, !tbaa !29
  %28 = load ptr, ptr %27, align 8, !tbaa !18
  %.not6.i = icmp eq ptr %28, null
  br i1 %.not6.i, label %pmix_obj_run_destructors.exit, label %.lr.ph.i

.lr.ph.i:                                         ; preds = %23, %.lr.ph.i
  %29 = phi ptr [ %31, %.lr.ph.i ], [ %28, %23 ]
  %.07.i = phi ptr [ %30, %.lr.ph.i ], [ %27, %23 ]
  tail call void %29(ptr noundef nonnull %1) #16
  %30 = getelementptr inbounds nuw i8, ptr %.07.i, i64 8
  %31 = load ptr, ptr %30, align 8, !tbaa !18
  %.not.i = icmp eq ptr %31, null
  br i1 %.not.i, label %pmix_obj_run_destructors.exit, label %.lr.ph.i, !llvm.loop !30

pmix_obj_run_destructors.exit:                    ; preds = %.lr.ph.i, %23
  %32 = getelementptr inbounds nuw i8, ptr %1, i64 96
  %33 = load ptr, ptr %32, align 8, !tbaa !79
  %.not15 = icmp eq ptr %33, null
  br i1 %.not15, label %36, label %34

34:                                               ; preds = %pmix_obj_run_destructors.exit
  %35 = getelementptr inbounds nuw i8, ptr %1, i64 56
  tail call void %33(ptr noundef nonnull %35, ptr noundef nonnull %1) #16
  br label %37

36:                                               ; preds = %pmix_obj_run_destructors.exit
  tail call void @free(ptr noundef nonnull %1) #16
  br label %37

37:                                               ; preds = %34, %36, %pmix_obj_update.exit
  ret void
}